ccopy_reg
_reconstructor
p0
(csklearn.linear_model.base
LinearRegression
p1
c__builtin__
object
p2
Ntp3
Rp4
(dp5
S'normalize'
p6
I00
sS'n_jobs'
p7
I-1
sS'rank_'
p8
I4
sS'fit_intercept'
p9
I01
sS'_residues'
p10
cnumpy.core.multiarray
scalar
p11
(cnumpy
dtype
p12
(S'f8'
p13
I0
I1
tp14
Rp15
(I3
S'<'
p16
NNNI-1
I-1
I0
tp17
bS'\xb3\x06^\xe4\xaa\xa5EA'
p18
tp19
Rp20
sS'coef_'
p21
cnumpy.core.multiarray
_reconstruct
p22
(cnumpy
ndarray
p23
(I0
tp24
S'b'
p25
tp26
Rp27
(I1
(I4
tp28
g15
I00
S'+"\xa1\xb0i\xbf\xef?\x85,\x13:\x15\xf8\xf2\xbfrK\x97\x81\xdeu\xc8\xbfz\x87\x8e\x15o\xcf\x96\xbe'
p29
tp30
bsS'copy_X'
p31
I01
sS'intercept_'
p32
g11
(g15
S'@\xf2`\xa3(\xd5/@'
p33
tp34
Rp35
sS'singular_'
p36
g22
(g23
(I0
tp37
g25
tp38
Rp39
(I1
(I4
tp40
g15
I00
S'\xa5\xb2\x91\xedM\xd4\xb8AK\x92e\xa2jv\xbc@\x88\xae\xa7\xa5\x07<S@R\x9f\xc6\xef\xd2\x0cM@'
p41
tp42
bsb.